ARM GAS  C:\Users\Elias\AppData\Local\Temp\ccopRsQM.s 			page 1


   1              		.syntax unified
   2              		.cpu cortex-m3
   3              		.fpu softvfp
   4              		.eabi_attribute 20, 1
   5              		.eabi_attribute 21, 1
   6              		.eabi_attribute 23, 3
   7              		.eabi_attribute 24, 1
   8              		.eabi_attribute 25, 1
   9              		.eabi_attribute 26, 1
  10              		.eabi_attribute 30, 1
  11              		.eabi_attribute 34, 1
  12              		.eabi_attribute 18, 4
  13              		.thumb
  14              		.syntax unified
  15              		.file	"LCD_Char_BarGraph.c"
  16              		.text
  17              	.Ltext0:
  18              		.cfi_sections	.debug_frame
  19              		.section	.text.LCD_Char_LoadCustomFonts,"ax",%progbits
  20              		.align	2
  21              		.global	LCD_Char_LoadCustomFonts
  22              		.thumb
  23              		.thumb_func
  24              		.type	LCD_Char_LoadCustomFonts, %function
  25              	LCD_Char_LoadCustomFonts:
  26              	.LFB0:
  27              		.file 1 "Generated_Source\\PSoC5\\LCD_Char_BarGraph.c"
   1:Generated_Source\PSoC5/LCD_Char_BarGraph.c **** /*******************************************************************************
   2:Generated_Source\PSoC5/LCD_Char_BarGraph.c **** * File Name: LCD_Char_BarGraph.c
   3:Generated_Source\PSoC5/LCD_Char_BarGraph.c **** * Version 2.20
   4:Generated_Source\PSoC5/LCD_Char_BarGraph.c **** *
   5:Generated_Source\PSoC5/LCD_Char_BarGraph.c **** * Description:
   6:Generated_Source\PSoC5/LCD_Char_BarGraph.c **** *  This file provides the custom character data and API for creating and using
   7:Generated_Source\PSoC5/LCD_Char_BarGraph.c **** *  bar graphs with the Character LCD component.
   8:Generated_Source\PSoC5/LCD_Char_BarGraph.c **** *
   9:Generated_Source\PSoC5/LCD_Char_BarGraph.c **** * Note:
  10:Generated_Source\PSoC5/LCD_Char_BarGraph.c **** *
  11:Generated_Source\PSoC5/LCD_Char_BarGraph.c **** ********************************************************************************
  12:Generated_Source\PSoC5/LCD_Char_BarGraph.c **** * Copyright 2008-2014, Cypress Semiconductor Corporation.  All rights reserved.
  13:Generated_Source\PSoC5/LCD_Char_BarGraph.c **** * You may use this file only in accordance with the license, terms, conditions,
  14:Generated_Source\PSoC5/LCD_Char_BarGraph.c **** * disclaimers, and limitations in the end user license agreement accompanying
  15:Generated_Source\PSoC5/LCD_Char_BarGraph.c **** * the software package with which this file was provided.
  16:Generated_Source\PSoC5/LCD_Char_BarGraph.c **** *******************************************************************************/
  17:Generated_Source\PSoC5/LCD_Char_BarGraph.c **** 
  18:Generated_Source\PSoC5/LCD_Char_BarGraph.c **** #include "LCD_Char.h"
  19:Generated_Source\PSoC5/LCD_Char_BarGraph.c **** 
  20:Generated_Source\PSoC5/LCD_Char_BarGraph.c **** 
  21:Generated_Source\PSoC5/LCD_Char_BarGraph.c **** uint8 const CYCODE LCD_Char_customFonts[] = \
  22:Generated_Source\PSoC5/LCD_Char_BarGraph.c **** {
  23:Generated_Source\PSoC5/LCD_Char_BarGraph.c ****     /* Character LCD_Char_CUSTOM_0   */
  24:Generated_Source\PSoC5/LCD_Char_BarGraph.c ****     0x00u,    0x00u,    0x00u,    0x00u,    0x00u,    0x00u,    0x00u,    0x00u, \
  25:Generated_Source\PSoC5/LCD_Char_BarGraph.c ****     /* Character LCD_Char_CUSTOM_1   */
  26:Generated_Source\PSoC5/LCD_Char_BarGraph.c ****     0x10u,    0x10u,    0x10u,    0x10u,    0x10u,    0x10u,    0x10u,    0x10u, \
  27:Generated_Source\PSoC5/LCD_Char_BarGraph.c ****     /* Character LCD_Char_CUSTOM_2   */
  28:Generated_Source\PSoC5/LCD_Char_BarGraph.c ****     0x18u,    0x18u,    0x18u,    0x18u,    0x18u,    0x18u,    0x18u,    0x18u, \
  29:Generated_Source\PSoC5/LCD_Char_BarGraph.c ****     /* Character LCD_Char_CUSTOM_3   */
  30:Generated_Source\PSoC5/LCD_Char_BarGraph.c ****     0x1Cu,    0x1Cu,    0x1Cu,    0x1Cu,    0x1Cu,    0x1Cu,    0x1Cu,    0x1Cu, \
ARM GAS  C:\Users\Elias\AppData\Local\Temp\ccopRsQM.s 			page 2


  31:Generated_Source\PSoC5/LCD_Char_BarGraph.c ****     /* Character LCD_Char_CUSTOM_4   */
  32:Generated_Source\PSoC5/LCD_Char_BarGraph.c ****     0x1Eu,    0x1Eu,    0x1Eu,    0x1Eu,    0x1Eu,    0x1Eu,    0x1Eu,    0x1Eu, \
  33:Generated_Source\PSoC5/LCD_Char_BarGraph.c ****     /* Character LCD_Char_CUSTOM_5   */
  34:Generated_Source\PSoC5/LCD_Char_BarGraph.c ****     0x1Fu,    0x1Fu,    0x1Fu,    0x1Fu,    0x1Fu,    0x1Fu,    0x1Fu,    0x1Fu, \
  35:Generated_Source\PSoC5/LCD_Char_BarGraph.c ****     /* Character LCD_Char_CUSTOM_6   */
  36:Generated_Source\PSoC5/LCD_Char_BarGraph.c ****     0x00u,    0x00u,    0x00u,    0x00u,    0x00u,    0x00u,    0x00u,    0x00u, \
  37:Generated_Source\PSoC5/LCD_Char_BarGraph.c ****     /* Character LCD_Char_CUSTOM_7   */
  38:Generated_Source\PSoC5/LCD_Char_BarGraph.c ****     0x00u,    0x00u,    0x00u,    0x00u,    0x00u,    0x00u,    0x00u,    0x00u \
  39:Generated_Source\PSoC5/LCD_Char_BarGraph.c **** };
  40:Generated_Source\PSoC5/LCD_Char_BarGraph.c **** 
  41:Generated_Source\PSoC5/LCD_Char_BarGraph.c **** 
  42:Generated_Source\PSoC5/LCD_Char_BarGraph.c **** /*******************************************************************************
  43:Generated_Source\PSoC5/LCD_Char_BarGraph.c **** * Function Name: LCD_Char_LoadCustomFonts
  44:Generated_Source\PSoC5/LCD_Char_BarGraph.c **** ********************************************************************************
  45:Generated_Source\PSoC5/LCD_Char_BarGraph.c **** *
  46:Generated_Source\PSoC5/LCD_Char_BarGraph.c **** * Summary:
  47:Generated_Source\PSoC5/LCD_Char_BarGraph.c **** *  Loads 8 custom font characters into the LCD Module for use.  Cannot use
  48:Generated_Source\PSoC5/LCD_Char_BarGraph.c **** *  characters from two different font sets at once, but font sets can be
  49:Generated_Source\PSoC5/LCD_Char_BarGraph.c **** *  switched out during runtime.
  50:Generated_Source\PSoC5/LCD_Char_BarGraph.c **** *
  51:Generated_Source\PSoC5/LCD_Char_BarGraph.c **** * Parameters:
  52:Generated_Source\PSoC5/LCD_Char_BarGraph.c **** *  customData:  pointer to a constant array of 64 bytes representing 8 custom
  53:Generated_Source\PSoC5/LCD_Char_BarGraph.c **** *               font characters.
  54:Generated_Source\PSoC5/LCD_Char_BarGraph.c **** * Return:
  55:Generated_Source\PSoC5/LCD_Char_BarGraph.c **** *  None.
  56:Generated_Source\PSoC5/LCD_Char_BarGraph.c **** *
  57:Generated_Source\PSoC5/LCD_Char_BarGraph.c **** * Theory:
  58:Generated_Source\PSoC5/LCD_Char_BarGraph.c **** *  Prior to using this function user need to import the pointer to custom
  59:Generated_Source\PSoC5/LCD_Char_BarGraph.c **** *  font array to your project by writting the following in the source code file
  60:Generated_Source\PSoC5/LCD_Char_BarGraph.c **** *  where custom font will be used:
  61:Generated_Source\PSoC5/LCD_Char_BarGraph.c **** *       extern uint8 const CYCODE LCD_Char_customFonts[];
  62:Generated_Source\PSoC5/LCD_Char_BarGraph.c **** *  This function is not automatically called by the Start() routine and must be
  63:Generated_Source\PSoC5/LCD_Char_BarGraph.c **** *  called manually by the user.
  64:Generated_Source\PSoC5/LCD_Char_BarGraph.c **** *******************************************************************************/
  65:Generated_Source\PSoC5/LCD_Char_BarGraph.c **** void LCD_Char_LoadCustomFonts(uint8 const customData[]) 
  66:Generated_Source\PSoC5/LCD_Char_BarGraph.c **** {
  28              		.loc 1 66 0
  29              		.cfi_startproc
  30              		@ args = 0, pretend = 0, frame = 0
  31              		@ frame_needed = 0, uses_anonymous_args = 0
  32              	.LVL0:
  33 0000 38B5     		push	{r3, r4, r5, lr}
  34              		.cfi_def_cfa_offset 16
  35              		.cfi_offset 3, -16
  36              		.cfi_offset 4, -12
  37              		.cfi_offset 5, -8
  38              		.cfi_offset 14, -4
  39 0002 0546     		mov	r5, r0
  67:Generated_Source\PSoC5/LCD_Char_BarGraph.c ****     uint8 indexU8;
  68:Generated_Source\PSoC5/LCD_Char_BarGraph.c **** 
  69:Generated_Source\PSoC5/LCD_Char_BarGraph.c ****     LCD_Char_IsReady();
  40              		.loc 1 69 0
  41 0004 FFF7FEFF 		bl	LCD_Char_IsReady
  42              	.LVL1:
  70:Generated_Source\PSoC5/LCD_Char_BarGraph.c ****     /* Set starting address in the LCD Module */
  71:Generated_Source\PSoC5/LCD_Char_BarGraph.c ****     /* Optionally: Read the current address to restore at a later time */
  72:Generated_Source\PSoC5/LCD_Char_BarGraph.c ****     LCD_Char_WriteControl(LCD_Char_CGRAM_0);
ARM GAS  C:\Users\Elias\AppData\Local\Temp\ccopRsQM.s 			page 3


  43              		.loc 1 72 0
  44 0008 4020     		movs	r0, #64
  45 000a FFF7FEFF 		bl	LCD_Char_WriteControl
  46              	.LVL2:
  73:Generated_Source\PSoC5/LCD_Char_BarGraph.c **** 
  74:Generated_Source\PSoC5/LCD_Char_BarGraph.c ****     /* Load in the 64 bytes of CustomChar Data */
  75:Generated_Source\PSoC5/LCD_Char_BarGraph.c ****     for(indexU8 = 0u; indexU8 < LCD_Char_CUSTOM_CHAR_SET_LEN; indexU8++)
  47              		.loc 1 75 0
  48 000e 0024     		movs	r4, #0
  49 0010 04E0     		b	.L2
  50              	.LVL3:
  51              	.L3:
  76:Generated_Source\PSoC5/LCD_Char_BarGraph.c ****     {
  77:Generated_Source\PSoC5/LCD_Char_BarGraph.c ****         /* Delay between each write */
  78:Generated_Source\PSoC5/LCD_Char_BarGraph.c ****         LCD_Char_WriteData(customData[indexU8]);
  52              		.loc 1 78 0 discriminator 3
  53 0012 285D     		ldrb	r0, [r5, r4]	@ zero_extendqisi2
  54 0014 FFF7FEFF 		bl	LCD_Char_WriteData
  55              	.LVL4:
  75:Generated_Source\PSoC5/LCD_Char_BarGraph.c ****     {
  56              		.loc 1 75 0 discriminator 3
  57 0018 0134     		adds	r4, r4, #1
  58              	.LVL5:
  59 001a E4B2     		uxtb	r4, r4
  60              	.LVL6:
  61              	.L2:
  75:Generated_Source\PSoC5/LCD_Char_BarGraph.c ****     {
  62              		.loc 1 75 0 is_stmt 0 discriminator 1
  63 001c 3F2C     		cmp	r4, #63
  64 001e F8D9     		bls	.L3
  79:Generated_Source\PSoC5/LCD_Char_BarGraph.c ****     }
  80:Generated_Source\PSoC5/LCD_Char_BarGraph.c **** 
  81:Generated_Source\PSoC5/LCD_Char_BarGraph.c ****     LCD_Char_IsReady();
  65              		.loc 1 81 0 is_stmt 1
  66 0020 FFF7FEFF 		bl	LCD_Char_IsReady
  67              	.LVL7:
  82:Generated_Source\PSoC5/LCD_Char_BarGraph.c ****     LCD_Char_WriteControl(LCD_Char_DDRAM_0);
  68              		.loc 1 82 0
  69 0024 8020     		movs	r0, #128
  70 0026 FFF7FEFF 		bl	LCD_Char_WriteControl
  71              	.LVL8:
  72 002a 38BD     		pop	{r3, r4, r5, pc}
  73              		.cfi_endproc
  74              	.LFE0:
  75              		.size	LCD_Char_LoadCustomFonts, .-LCD_Char_LoadCustomFonts
  76              		.section	.text.LCD_Char_DrawHorizontalBG,"ax",%progbits
  77              		.align	2
  78              		.global	LCD_Char_DrawHorizontalBG
  79              		.thumb
  80              		.thumb_func
  81              		.type	LCD_Char_DrawHorizontalBG, %function
  82              	LCD_Char_DrawHorizontalBG:
  83              	.LFB1:
  83:Generated_Source\PSoC5/LCD_Char_BarGraph.c **** }
  84:Generated_Source\PSoC5/LCD_Char_BarGraph.c **** 
  85:Generated_Source\PSoC5/LCD_Char_BarGraph.c **** 
  86:Generated_Source\PSoC5/LCD_Char_BarGraph.c **** #if (LCD_Char_CUSTOM_CHAR_SET == LCD_Char_HORIZONTAL_BG)
ARM GAS  C:\Users\Elias\AppData\Local\Temp\ccopRsQM.s 			page 4


  87:Generated_Source\PSoC5/LCD_Char_BarGraph.c **** 
  88:Generated_Source\PSoC5/LCD_Char_BarGraph.c ****     /*******************************************************************************
  89:Generated_Source\PSoC5/LCD_Char_BarGraph.c ****     * Function Name: LCD_Char_DrawHorizontalBG
  90:Generated_Source\PSoC5/LCD_Char_BarGraph.c ****     ********************************************************************************
  91:Generated_Source\PSoC5/LCD_Char_BarGraph.c ****     *
  92:Generated_Source\PSoC5/LCD_Char_BarGraph.c ****     * Summary:
  93:Generated_Source\PSoC5/LCD_Char_BarGraph.c ****     *  Draws the horizontal bargraph.
  94:Generated_Source\PSoC5/LCD_Char_BarGraph.c ****     *
  95:Generated_Source\PSoC5/LCD_Char_BarGraph.c ****     * Parameters:
  96:Generated_Source\PSoC5/LCD_Char_BarGraph.c ****     *  row:            The row in which the bar graph starts.
  97:Generated_Source\PSoC5/LCD_Char_BarGraph.c ****     *  column:         The column in which the bar graph starts.
  98:Generated_Source\PSoC5/LCD_Char_BarGraph.c ****     *  maxCharacters:  The max length of the graph in whole characters.
  99:Generated_Source\PSoC5/LCD_Char_BarGraph.c ****     *  value:          The current length or height of the graph in pixels.
 100:Generated_Source\PSoC5/LCD_Char_BarGraph.c ****     *
 101:Generated_Source\PSoC5/LCD_Char_BarGraph.c ****     * Return:
 102:Generated_Source\PSoC5/LCD_Char_BarGraph.c ****     *  void.
 103:Generated_Source\PSoC5/LCD_Char_BarGraph.c ****     *
 104:Generated_Source\PSoC5/LCD_Char_BarGraph.c ****     *******************************************************************************/
 105:Generated_Source\PSoC5/LCD_Char_BarGraph.c ****     void LCD_Char_DrawHorizontalBG(uint8 row, uint8 column, uint8 maxCharacters, uint8 value) \
 106:Generated_Source\PSoC5/LCD_Char_BarGraph.c ****                                                             
 107:Generated_Source\PSoC5/LCD_Char_BarGraph.c ****     {
  84              		.loc 1 107 0
  85              		.cfi_startproc
  86              		@ args = 0, pretend = 0, frame = 0
  87              		@ frame_needed = 0, uses_anonymous_args = 0
  88              	.LVL9:
  89 0000 F8B5     		push	{r3, r4, r5, r6, r7, lr}
  90              		.cfi_def_cfa_offset 24
  91              		.cfi_offset 3, -24
  92              		.cfi_offset 4, -20
  93              		.cfi_offset 5, -16
  94              		.cfi_offset 6, -12
  95              		.cfi_offset 7, -8
  96              		.cfi_offset 14, -4
  97 0002 1646     		mov	r6, r2
 108:Generated_Source\PSoC5/LCD_Char_BarGraph.c ****         /* 8-bit Counter */
 109:Generated_Source\PSoC5/LCD_Char_BarGraph.c ****         uint8 count8;
 110:Generated_Source\PSoC5/LCD_Char_BarGraph.c ****         uint8 fullChars;
 111:Generated_Source\PSoC5/LCD_Char_BarGraph.c ****         uint8 remainingPixels;
 112:Generated_Source\PSoC5/LCD_Char_BarGraph.c **** 
 113:Generated_Source\PSoC5/LCD_Char_BarGraph.c ****         /* Number of full characters to draw */
 114:Generated_Source\PSoC5/LCD_Char_BarGraph.c ****         fullChars = value / LCD_Char_CHARACTER_WIDTH;
  98              		.loc 1 114 0
  99 0004 154A     		ldr	r2, .L15
 100              	.LVL10:
 101 0006 A2FB0342 		umull	r4, r2, r2, r3
 102 000a 9208     		lsrs	r2, r2, #2
 103 000c D5B2     		uxtb	r5, r2
 104              	.LVL11:
 115:Generated_Source\PSoC5/LCD_Char_BarGraph.c **** 
 116:Generated_Source\PSoC5/LCD_Char_BarGraph.c ****         /* Number of remaining pixels to draw */
 117:Generated_Source\PSoC5/LCD_Char_BarGraph.c ****         remainingPixels = value % LCD_Char_CHARACTER_WIDTH;
 105              		.loc 1 117 0
 106 000e 02EB8202 		add	r2, r2, r2, lsl #2
 107 0012 9A1A     		subs	r2, r3, r2
 108 0014 D7B2     		uxtb	r7, r2
 109              	.LVL12:
ARM GAS  C:\Users\Elias\AppData\Local\Temp\ccopRsQM.s 			page 5


 118:Generated_Source\PSoC5/LCD_Char_BarGraph.c **** 
 119:Generated_Source\PSoC5/LCD_Char_BarGraph.c ****         /* Ensure that the maximum character limit is followed. */
 120:Generated_Source\PSoC5/LCD_Char_BarGraph.c ****         if(fullChars >= maxCharacters)
 110              		.loc 1 120 0
 111 0016 B542     		cmp	r5, r6
 112 0018 00D3     		bcc	.L6
 121:Generated_Source\PSoC5/LCD_Char_BarGraph.c ****         {
 122:Generated_Source\PSoC5/LCD_Char_BarGraph.c ****             fullChars = maxCharacters;
 113              		.loc 1 122 0
 114 001a 3546     		mov	r5, r6
 115              	.LVL13:
 116              	.L6:
 123:Generated_Source\PSoC5/LCD_Char_BarGraph.c ****         }
 124:Generated_Source\PSoC5/LCD_Char_BarGraph.c **** 
 125:Generated_Source\PSoC5/LCD_Char_BarGraph.c ****         /* Put Cursor at start position */
 126:Generated_Source\PSoC5/LCD_Char_BarGraph.c ****         LCD_Char_Position(row, column);
 117              		.loc 1 126 0
 118 001c FFF7FEFF 		bl	LCD_Char_Position
 119              	.LVL14:
 127:Generated_Source\PSoC5/LCD_Char_BarGraph.c **** 
 128:Generated_Source\PSoC5/LCD_Char_BarGraph.c ****         /* Write full characters */
 129:Generated_Source\PSoC5/LCD_Char_BarGraph.c ****         for(count8 = 0u; count8 < fullChars; count8++)
 120              		.loc 1 129 0
 121 0020 0024     		movs	r4, #0
 122 0022 04E0     		b	.L7
 123              	.LVL15:
 124              	.L8:
 130:Generated_Source\PSoC5/LCD_Char_BarGraph.c ****         {
 131:Generated_Source\PSoC5/LCD_Char_BarGraph.c ****             LCD_Char_WriteData(LCD_Char_CUSTOM_5);
 125              		.loc 1 131 0 discriminator 3
 126 0024 0520     		movs	r0, #5
 127 0026 FFF7FEFF 		bl	LCD_Char_WriteData
 128              	.LVL16:
 129:Generated_Source\PSoC5/LCD_Char_BarGraph.c ****         {
 129              		.loc 1 129 0 discriminator 3
 130 002a 0134     		adds	r4, r4, #1
 131              	.LVL17:
 132 002c E4B2     		uxtb	r4, r4
 133              	.LVL18:
 134              	.L7:
 129:Generated_Source\PSoC5/LCD_Char_BarGraph.c ****         {
 135              		.loc 1 129 0 is_stmt 0 discriminator 1
 136 002e AC42     		cmp	r4, r5
 137 0030 F8D3     		bcc	.L8
 132:Generated_Source\PSoC5/LCD_Char_BarGraph.c ****         }
 133:Generated_Source\PSoC5/LCD_Char_BarGraph.c **** 
 134:Generated_Source\PSoC5/LCD_Char_BarGraph.c ****         if(fullChars < maxCharacters)
 138              		.loc 1 134 0 is_stmt 1
 139 0032 B542     		cmp	r5, r6
 140 0034 11D2     		bcs	.L5
 135:Generated_Source\PSoC5/LCD_Char_BarGraph.c ****         {
 136:Generated_Source\PSoC5/LCD_Char_BarGraph.c ****             /* Write remaining pixels */
 137:Generated_Source\PSoC5/LCD_Char_BarGraph.c ****             LCD_Char_WriteData(remainingPixels);
 141              		.loc 1 137 0
 142 0036 3846     		mov	r0, r7
 143 0038 FFF7FEFF 		bl	LCD_Char_WriteData
 144              	.LVL19:
ARM GAS  C:\Users\Elias\AppData\Local\Temp\ccopRsQM.s 			page 6


 138:Generated_Source\PSoC5/LCD_Char_BarGraph.c **** 
 139:Generated_Source\PSoC5/LCD_Char_BarGraph.c ****             if(fullChars < (maxCharacters - 1u))
 145              		.loc 1 139 0
 146 003c 731E     		subs	r3, r6, #1
 147 003e 9D42     		cmp	r5, r3
 148 0040 06D3     		bcc	.L13
 149 0042 F8BD     		pop	{r3, r4, r5, r6, r7, pc}
 150              	.LVL20:
 151              	.L11:
 140:Generated_Source\PSoC5/LCD_Char_BarGraph.c ****             {
 141:Generated_Source\PSoC5/LCD_Char_BarGraph.c ****                 /* Fill with whitespace to end of bar graph */
 142:Generated_Source\PSoC5/LCD_Char_BarGraph.c ****                 for(count8 = 0u; count8 < (maxCharacters - fullChars - 1u); count8++)
 143:Generated_Source\PSoC5/LCD_Char_BarGraph.c ****                 {
 144:Generated_Source\PSoC5/LCD_Char_BarGraph.c ****                     LCD_Char_WriteData(LCD_Char_CUSTOM_0);
 152              		.loc 1 144 0 discriminator 3
 153 0044 0020     		movs	r0, #0
 154 0046 FFF7FEFF 		bl	LCD_Char_WriteData
 155              	.LVL21:
 142:Generated_Source\PSoC5/LCD_Char_BarGraph.c ****                 {
 156              		.loc 1 142 0 discriminator 3
 157 004a 0134     		adds	r4, r4, #1
 158              	.LVL22:
 159 004c E4B2     		uxtb	r4, r4
 160              	.LVL23:
 161 004e 00E0     		b	.L10
 162              	.L13:
 163 0050 0024     		movs	r4, #0
 164              	.LVL24:
 165              	.L10:
 142:Generated_Source\PSoC5/LCD_Char_BarGraph.c ****                 {
 166              		.loc 1 142 0 is_stmt 0 discriminator 1
 167 0052 731B     		subs	r3, r6, r5
 168 0054 013B     		subs	r3, r3, #1
 169 0056 9C42     		cmp	r4, r3
 170 0058 F4D3     		bcc	.L11
 171              	.L5:
 172 005a F8BD     		pop	{r3, r4, r5, r6, r7, pc}
 173              	.LVL25:
 174              	.L16:
 175              		.align	2
 176              	.L15:
 177 005c CDCCCCCC 		.word	-858993459
 178              		.cfi_endproc
 179              	.LFE1:
 180              		.size	LCD_Char_DrawHorizontalBG, .-LCD_Char_DrawHorizontalBG
 181              		.global	LCD_Char_customFonts
 182              		.section	.rodata
 183              		.align	2
 184              		.type	LCD_Char_customFonts, %object
 185              		.size	LCD_Char_customFonts, 64
 186              	LCD_Char_customFonts:
 187 0000 00       		.byte	0
 188 0001 00       		.byte	0
 189 0002 00       		.byte	0
 190 0003 00       		.byte	0
 191 0004 00       		.byte	0
 192 0005 00       		.byte	0
ARM GAS  C:\Users\Elias\AppData\Local\Temp\ccopRsQM.s 			page 7


 193 0006 00       		.byte	0
 194 0007 00       		.byte	0
 195 0008 10       		.byte	16
 196 0009 10       		.byte	16
 197 000a 10       		.byte	16
 198 000b 10       		.byte	16
 199 000c 10       		.byte	16
 200 000d 10       		.byte	16
 201 000e 10       		.byte	16
 202 000f 10       		.byte	16
 203 0010 18       		.byte	24
 204 0011 18       		.byte	24
 205 0012 18       		.byte	24
 206 0013 18       		.byte	24
 207 0014 18       		.byte	24
 208 0015 18       		.byte	24
 209 0016 18       		.byte	24
 210 0017 18       		.byte	24
 211 0018 1C       		.byte	28
 212 0019 1C       		.byte	28
 213 001a 1C       		.byte	28
 214 001b 1C       		.byte	28
 215 001c 1C       		.byte	28
 216 001d 1C       		.byte	28
 217 001e 1C       		.byte	28
 218 001f 1C       		.byte	28
 219 0020 1E       		.byte	30
 220 0021 1E       		.byte	30
 221 0022 1E       		.byte	30
 222 0023 1E       		.byte	30
 223 0024 1E       		.byte	30
 224 0025 1E       		.byte	30
 225 0026 1E       		.byte	30
 226 0027 1E       		.byte	30
 227 0028 1F       		.byte	31
 228 0029 1F       		.byte	31
 229 002a 1F       		.byte	31
 230 002b 1F       		.byte	31
 231 002c 1F       		.byte	31
 232 002d 1F       		.byte	31
 233 002e 1F       		.byte	31
 234 002f 1F       		.byte	31
 235 0030 00       		.byte	0
 236 0031 00       		.byte	0
 237 0032 00       		.byte	0
 238 0033 00       		.byte	0
 239 0034 00       		.byte	0
 240 0035 00       		.byte	0
 241 0036 00       		.byte	0
 242 0037 00       		.byte	0
 243 0038 00       		.byte	0
 244 0039 00       		.byte	0
 245 003a 00       		.byte	0
 246 003b 00       		.byte	0
 247 003c 00       		.byte	0
 248 003d 00       		.byte	0
 249 003e 00       		.byte	0
ARM GAS  C:\Users\Elias\AppData\Local\Temp\ccopRsQM.s 			page 8


 250 003f 00       		.byte	0
 251              		.text
 252              	.Letext0:
 253              		.file 2 "Generated_Source\\PSoC5\\LCD_Char.h"
 254              		.file 3 "Generated_Source\\PSoC5\\cytypes.h"