ARM GAS  C:\Users\sucra\AppData\Local\Temp\cctzm17f.s 			page 1


   1              		.syntax unified
   2              		.cpu cortex-m3
   3              		.fpu softvfp
   4              		.eabi_attribute 20, 1
   5              		.eabi_attribute 21, 1
   6              		.eabi_attribute 23, 3
   7              		.eabi_attribute 24, 1
   8              		.eabi_attribute 25, 1
   9              		.eabi_attribute 26, 1
  10              		.eabi_attribute 30, 1
  11              		.eabi_attribute 34, 1
  12              		.eabi_attribute 18, 4
  13              		.thumb
  14              		.syntax unified
  15              		.file	"main.c"
  16              		.text
  17              	.Ltext0:
  18              		.cfi_sections	.debug_frame
  19              		.section	.text.sw3,"ax",%progbits
  20              		.align	2
  21              		.global	sw3
  22              		.thumb
  23              		.thumb_func
  24              		.type	sw3, %function
  25              	sw3:
  26              	.LFB67:
  27              		.file 1 "main.c"
   1:main.c        **** /* ========================================
   2:main.c        ****  *
   3:main.c        ****  *
   4:main.c        ****  *
   5:main.c        ****  * Groupe 43
   6:main.c        ****  * Projet Digital Electronics
   7:main.c        ****  * Elec-H310
   8:main.c        ****  * youssef TALHAOUI 503861 /  Marcus Chretien 498327 
   9:main.c        ****  * ========================================
  10:main.c        **** */
  11:main.c        **** #include "project.h"
  12:main.c        **** #include "keypad.h"
  13:main.c        **** #include <stdio.h>
  14:main.c        **** #include <math.h>
  15:main.c        **** #define PI 3.14
  16:main.c        **** 
  17:main.c        **** 
  18:main.c        **** float jmp; 
  19:main.c        **** uint16_t i = 0;
  20:main.c        **** uint8_t value;
  21:main.c        **** uint16 ms_count;
  22:main.c        **** int score= 0 ;
  23:main.c        **** 
  24:main.c        **** // Array to contain the values of the sin wave 
  25:main.c        **** double wave[100];
  26:main.c        **** 
  27:main.c        **** void jump() ; 
  28:main.c        **** void duck() ; 
  29:main.c        **** 
  30:main.c        **** CY_ISR(sw1){ // interruption for jump button 
ARM GAS  C:\Users\sucra\AppData\Local\Temp\cctzm17f.s 			page 2


  31:main.c        ****     jump();}
  32:main.c        ****     
  33:main.c        **** CY_ISR(sw2){ // interruption for duck button  
  34:main.c        ****     duck();}
  35:main.c        **** 
  36:main.c        **** CY_ISR (InterruptionRX) { // interruption for UART 
  37:main.c        ****     
  38:main.c        ****     uint8_t status = 0;
  39:main.c        ****     do{
  40:main.c        ****         // Checks if no UART Rx errors
  41:main.c        ****         status = UART_ReadRxStatus () ;
  42:main.c        ****         if (( status & UART_RX_STS_PAR_ERROR ) |
  43:main.c        ****             ( status & UART_RX_STS_STOP_ERROR ) |
  44:main.c        ****             ( status & UART_RX_STS_BREAK ) |
  45:main.c        ****             ( status & UART_RX_STS_OVERRUN ) ) {
  46:main.c        ****         // Parity , framing , break or overrun error
  47:main.c        ****         //LCD_Position (1 ,0) ;
  48:main.c        ****         //LCD_PrintString (" UART err");
  49:main.c        ****         }
  50:main.c        ****     
  51:main.c        ****         // Check that rx buffer is not empty and get rx data
  52:main.c        ****         if ( ( status & UART_RX_STS_FIFO_NOTEMPTY ) != 0) {
  53:main.c        ****             uint8 Receiver = UART_ReadRxData () ;
  54:main.c        ****         
  55:main.c        ****             if (Receiver == 'J' || Receiver == 'j' ){ 
  56:main.c        ****             // if we receive a j then jump
  57:main.c        ****                 jump();
  58:main.c        ****             }
  59:main.c        ****             else if(Receiver == 'D' || Receiver == 'd' ){ 
  60:main.c        ****             //if we receive a d then duck 
  61:main.c        ****                 duck();
  62:main.c        ****             }
  63:main.c        ****         }
  64:main.c        ****     } while (( status & UART_RX_STS_FIFO_NOTEMPTY ) != 0) ;
  65:main.c        **** }
  66:main.c        **** 
  67:main.c        **** // interruption for reset button 
  68:main.c        **** CY_ISR(sw3){
  28              		.loc 1 68 0
  29              		.cfi_startproc
  30              		@ args = 0, pretend = 0, frame = 0
  31              		@ frame_needed = 0, uses_anonymous_args = 0
  32 0000 10B5     		push	{r4, lr}
  33              		.cfi_def_cfa_offset 8
  34              		.cfi_offset 4, -8
  35              		.cfi_offset 14, -4
  69:main.c        **** if (SW3_Read()){
  36              		.loc 1 69 0
  37 0002 FFF7FEFF 		bl	SW3_Read
  38              	.LVL0:
  39 0006 70B1     		cbz	r0, .L1
  70:main.c        ****     Timer_Stop();
  40              		.loc 1 70 0
  41 0008 FFF7FEFF 		bl	Timer_Stop
  42              	.LVL1:
  71:main.c        ****     score=0;
  43              		.loc 1 71 0
ARM GAS  C:\Users\sucra\AppData\Local\Temp\cctzm17f.s 			page 3


  44 000c 0024     		movs	r4, #0
  45 000e 064B     		ldr	r3, .L4
  46 0010 1C60     		str	r4, [r3]
  72:main.c        ****     LCD_Char_ClearDisplay();
  47              		.loc 1 72 0
  48 0012 0120     		movs	r0, #1
  49 0014 FFF7FEFF 		bl	LCD_Char_WriteControl
  50              	.LVL2:
  73:main.c        ****     LCD_Char_Position(0,0);
  51              		.loc 1 73 0
  52 0018 2146     		mov	r1, r4
  53 001a 2046     		mov	r0, r4
  54 001c FFF7FEFF 		bl	LCD_Char_Position
  55              	.LVL3:
  74:main.c        ****     LCD_Char_PrintString("READY");
  56              		.loc 1 74 0
  57 0020 0248     		ldr	r0, .L4+4
  58 0022 FFF7FEFF 		bl	LCD_Char_PrintString
  59              	.LVL4:
  60              	.L1:
  61 0026 10BD     		pop	{r4, pc}
  62              	.L5:
  63              		.align	2
  64              	.L4:
  65 0028 00000000 		.word	.LANCHOR0
  66 002c 00000000 		.word	.LC0
  67              		.cfi_endproc
  68              	.LFE67:
  69              		.size	sw3, .-sw3
  70              		.section	.text.MY_ISR,"ax",%progbits
  71              		.align	2
  72              		.global	MY_ISR
  73              		.thumb
  74              		.thumb_func
  75              		.type	MY_ISR, %function
  76              	MY_ISR:
  77              	.LFB68:
  75:main.c        **** }}
  76:main.c        **** 
  77:main.c        **** // interruption for the score counting on LCD screen
  78:main.c        **** // 10pts incrementation every second
  79:main.c        **** CY_ISR(MY_ISR) {
  78              		.loc 1 79 0
  79              		.cfi_startproc
  80              		@ args = 0, pretend = 0, frame = 0
  81              		@ frame_needed = 0, uses_anonymous_args = 0
  82 0000 10B5     		push	{r4, lr}
  83              		.cfi_def_cfa_offset 8
  84              		.cfi_offset 4, -8
  85              		.cfi_offset 14, -4
  80:main.c        ****     score+=10;
  86              		.loc 1 80 0
  87 0002 064C     		ldr	r4, .L8
  88 0004 2368     		ldr	r3, [r4]
  89 0006 0A33     		adds	r3, r3, #10
  90 0008 2360     		str	r3, [r4]
  81:main.c        ****     LCD_Char_Position(1,0);
ARM GAS  C:\Users\sucra\AppData\Local\Temp\cctzm17f.s 			page 4


  91              		.loc 1 81 0
  92 000a 0021     		movs	r1, #0
  93 000c 0120     		movs	r0, #1
  94 000e FFF7FEFF 		bl	LCD_Char_Position
  95              	.LVL5:
  82:main.c        ****     LCD_Char_PrintNumber(score);
  96              		.loc 1 82 0
  97 0012 2088     		ldrh	r0, [r4]
  98 0014 FFF7FEFF 		bl	LCD_Char_PrintU32Number
  99              	.LVL6:
 100 0018 10BD     		pop	{r4, pc}
 101              	.L9:
 102 001a 00BF     		.align	2
 103              	.L8:
 104 001c 00000000 		.word	.LANCHOR0
 105              		.cfi_endproc
 106              	.LFE68:
 107              		.size	MY_ISR, .-MY_ISR
 108              		.global	__aeabi_d2uiz
 109              		.section	.text.duck,"ax",%progbits
 110              		.align	2
 111              		.global	duck
 112              		.thumb
 113              		.thumb_func
 114              		.type	duck, %function
 115              	duck:
 116              	.LFB69:
  83:main.c        **** }
  84:main.c        **** 
  85:main.c        **** //duck function
  86:main.c        **** void duck(){
 117              		.loc 1 86 0
 118              		.cfi_startproc
 119              		@ args = 0, pretend = 0, frame = 1024
 120              		@ frame_needed = 0, uses_anonymous_args = 0
 121 0000 30B5     		push	{r4, r5, lr}
 122              		.cfi_def_cfa_offset 12
 123              		.cfi_offset 4, -12
 124              		.cfi_offset 5, -8
 125              		.cfi_offset 14, -4
 126 0002 ADF2044D 		subw	sp, sp, #1028
 127              		.cfi_def_cfa_offset 1040
  87:main.c        ****     LCD_Char_Position(0,0);  
 128              		.loc 1 87 0
 129 0006 0021     		movs	r1, #0
 130 0008 0846     		mov	r0, r1
 131 000a FFF7FEFF 		bl	LCD_Char_Position
 132              	.LVL7:
  88:main.c        ****     LCD_Char_PrintString("Duck ");
 133              		.loc 1 88 0
 134 000e 2448     		ldr	r0, .L18
 135 0010 FFF7FEFF 		bl	LCD_Char_PrintString
 136              	.LVL8:
  89:main.c        ****     LED3_Write(1); //turn the led on 
 137              		.loc 1 89 0
 138 0014 0120     		movs	r0, #1
 139 0016 FFF7FEFF 		bl	LED3_Write
ARM GAS  C:\Users\sucra\AppData\Local\Temp\cctzm17f.s 			page 5


 140              	.LVL9:
  90:main.c        ****     LED4_Write(1);
 141              		.loc 1 90 0
 142 001a 0120     		movs	r0, #1
 143 001c FFF7FEFF 		bl	LED4_Write
 144              	.LVL10:
  91:main.c        ****     // Updates servo motor to "push-down" position 
  92:main.c        ****     DUCK_WriteCompare(2100); 
 145              		.loc 1 92 0
 146 0020 40F63400 		movw	r0, #2100
 147 0024 FFF7FEFF 		bl	DUCK_WriteCompare
 148              	.LVL11:
 149              	.LBB2:
  93:main.c        ****     int j=0;
  94:main.c        ****     
  95:main.c        ****     // Loop generating ducking sound for 0.5s 
  96:main.c        ****     for(int i=0;i<500000;i++) { 
 150              		.loc 1 96 0
 151 0028 0024     		movs	r4, #0
 152              	.LBE2:
  93:main.c        ****     int j=0;
 153              		.loc 1 93 0
 154 002a 2546     		mov	r5, r4
 155              	.LBB3:
 156              		.loc 1 96 0
 157 002c 13E0     		b	.L11
 158              	.LVL12:
 159              	.L14:
  97:main.c        ****         if(0x80 & Timer_audio_ReadStatusRegister()){
 160              		.loc 1 97 0
 161 002e FFF7FEFF 		bl	Timer_audio_ReadStatusRegister
 162              	.LVL13:
 163 0032 10F0800F 		tst	r0, #128
 164 0036 0DD0     		beq	.L12
  98:main.c        ****             VDAC_SetValue(wave[j]); 
 165              		.loc 1 98 0
 166 0038 1A4B     		ldr	r3, .L18+4
 167 003a 03EBC503 		add	r3, r3, r5, lsl #3
 168 003e D3E90001 		ldrd	r0, [r3]
 169 0042 FFF7FEFF 		bl	__aeabi_d2uiz
 170              	.LVL14:
 171 0046 C0B2     		uxtb	r0, r0
 172 0048 FFF7FEFF 		bl	VDAC_SetValue
 173              	.LVL15:
  99:main.c        ****             if (j>99) j=0;
 174              		.loc 1 99 0
 175 004c 632D     		cmp	r5, #99
 176 004e 00DD     		ble	.L13
 177 0050 0025     		movs	r5, #0
 178              	.LVL16:
 179              	.L13:
 100:main.c        ****             j++;
 180              		.loc 1 100 0
 181 0052 0135     		adds	r5, r5, #1
 182              	.LVL17:
 183              	.L12:
  96:main.c        ****         if(0x80 & Timer_audio_ReadStatusRegister()){
ARM GAS  C:\Users\sucra\AppData\Local\Temp\cctzm17f.s 			page 6


 184              		.loc 1 96 0 discriminator 2
 185 0054 0134     		adds	r4, r4, #1
 186              	.LVL18:
 187              	.L11:
  96:main.c        ****         if(0x80 & Timer_audio_ReadStatusRegister()){
 188              		.loc 1 96 0 is_stmt 0 discriminator 1
 189 0056 144B     		ldr	r3, .L18+8
 190 0058 9C42     		cmp	r4, r3
 191 005a E8DD     		ble	.L14
 192              	.LBE3:
 101:main.c        ****        }
 102:main.c        ****     }
 103:main.c        ****     // Updates servo motor to "up" position 
 104:main.c        ****     DUCK_WriteCompare(2500);
 193              		.loc 1 104 0 is_stmt 1
 194 005c 40F6C410 		movw	r0, #2500
 195 0060 FFF7FEFF 		bl	DUCK_WriteCompare
 196              	.LVL19:
 105:main.c        ****     LED3_Write(0); //turn off the led
 197              		.loc 1 105 0
 198 0064 0020     		movs	r0, #0
 199 0066 FFF7FEFF 		bl	LED3_Write
 200              	.LVL20:
 106:main.c        ****     LED4_Write(0);
 201              		.loc 1 106 0
 202 006a 0020     		movs	r0, #0
 203 006c FFF7FEFF 		bl	LED4_Write
 204              	.LVL21:
 107:main.c        ****     char string[1024];
 108:main.c        ****     sprintf(string,"DUCK \n");
 205              		.loc 1 108 0
 206 0070 0E4A     		ldr	r2, .L18+12
 207 0072 92E80300 		ldmia	r2, {r0, r1}
 208 0076 0090     		str	r0, [sp]
 209 0078 ADF80410 		strh	r1, [sp, #4]	@ movhi
 210 007c 090C     		lsrs	r1, r1, #16
 211 007e 8DF80610 		strb	r1, [sp, #6]
 109:main.c        ****     //Writes "DUCK" in the UART 
 110:main.c        ****     UART_PutString(string);
 212              		.loc 1 110 0
 213 0082 6846     		mov	r0, sp
 214 0084 FFF7FEFF 		bl	UART_PutString
 215              	.LVL22:
 111:main.c        ****     //if the game didn't start , start  the score  
 112:main.c        ****     if ( score == 0 ){
 216              		.loc 1 112 0
 217 0088 094B     		ldr	r3, .L18+16
 218 008a 1B68     		ldr	r3, [r3]
 219 008c 23B9     		cbnz	r3, .L10
 113:main.c        ****         Timer_Start(); // Configure and enable timer
 220              		.loc 1 113 0
 221 008e FFF7FEFF 		bl	Timer_Start
 222              	.LVL23:
 114:main.c        ****         isr_1_StartEx(MY_ISR);
 223              		.loc 1 114 0
 224 0092 0848     		ldr	r0, .L18+20
 225 0094 FFF7FEFF 		bl	isr_1_StartEx
ARM GAS  C:\Users\sucra\AppData\Local\Temp\cctzm17f.s 			page 7


 226              	.LVL24:
 227              	.L10:
 115:main.c        ****     }
 116:main.c        **** }
 228              		.loc 1 116 0
 229 0098 0DF2044D 		addw	sp, sp, #1028
 230              		.cfi_def_cfa_offset 12
 231              		@ sp needed
 232 009c 30BD     		pop	{r4, r5, pc}
 233              	.LVL25:
 234              	.L19:
 235 009e 00BF     		.align	2
 236              	.L18:
 237 00a0 08000000 		.word	.LC1
 238 00a4 00000000 		.word	wave
 239 00a8 1FA10700 		.word	499999
 240 00ac 10000000 		.word	.LC2
 241 00b0 00000000 		.word	.LANCHOR0
 242 00b4 00000000 		.word	MY_ISR
 243              		.cfi_endproc
 244              	.LFE69:
 245              		.size	duck, .-duck
 246              		.section	.text.sw2,"ax",%progbits
 247              		.align	2
 248              		.global	sw2
 249              		.thumb
 250              		.thumb_func
 251              		.type	sw2, %function
 252              	sw2:
 253              	.LFB65:
  33:main.c        ****     duck();}
 254              		.loc 1 33 0
 255              		.cfi_startproc
 256              		@ args = 0, pretend = 0, frame = 0
 257              		@ frame_needed = 0, uses_anonymous_args = 0
 258 0000 08B5     		push	{r3, lr}
 259              		.cfi_def_cfa_offset 8
 260              		.cfi_offset 3, -8
 261              		.cfi_offset 14, -4
  34:main.c        **** 
 262              		.loc 1 34 0
 263 0002 FFF7FEFF 		bl	duck
 264              	.LVL26:
 265 0006 08BD     		pop	{r3, pc}
 266              		.cfi_endproc
 267              	.LFE65:
 268              		.size	sw2, .-sw2
 269              		.section	.text.jump,"ax",%progbits
 270              		.align	2
 271              		.global	jump
 272              		.thumb
 273              		.thumb_func
 274              		.type	jump, %function
 275              	jump:
 276              	.LFB70:
 117:main.c        **** 
 118:main.c        **** 
ARM GAS  C:\Users\sucra\AppData\Local\Temp\cctzm17f.s 			page 8


 119:main.c        **** // Jump function
 120:main.c        **** void jump(){
 277              		.loc 1 120 0
 278              		.cfi_startproc
 279              		@ args = 0, pretend = 0, frame = 1024
 280              		@ frame_needed = 0, uses_anonymous_args = 0
 281 0000 30B5     		push	{r4, r5, lr}
 282              		.cfi_def_cfa_offset 12
 283              		.cfi_offset 4, -12
 284              		.cfi_offset 5, -8
 285              		.cfi_offset 14, -4
 286 0002 ADF2044D 		subw	sp, sp, #1028
 287              		.cfi_def_cfa_offset 1040
 121:main.c        ****     LCD_Char_Position(0,0);  // displays "Jump" on the LCD screen
 288              		.loc 1 121 0
 289 0006 0021     		movs	r1, #0
 290 0008 0846     		mov	r0, r1
 291 000a FFF7FEFF 		bl	LCD_Char_Position
 292              	.LVL27:
 122:main.c        ****     LCD_Char_PrintString("Jump ");
 293              		.loc 1 122 0
 294 000e 2448     		ldr	r0, .L30
 295 0010 FFF7FEFF 		bl	LCD_Char_PrintString
 296              	.LVL28:
 123:main.c        ****     LED1_Write(1); // LEDs switch on 
 297              		.loc 1 123 0
 298 0014 0120     		movs	r0, #1
 299 0016 FFF7FEFF 		bl	LED1_Write
 300              	.LVL29:
 124:main.c        ****     LED2_Write(1);
 301              		.loc 1 124 0
 302 001a 0120     		movs	r0, #1
 303 001c FFF7FEFF 		bl	LED2_Write
 304              	.LVL30:
 125:main.c        ****     // Updates servo motor to "push-down" position 
 126:main.c        ****     JUMP_WriteCompare(2100);
 305              		.loc 1 126 0
 306 0020 40F63400 		movw	r0, #2100
 307 0024 FFF7FEFF 		bl	JUMP_WriteCompare
 308              	.LVL31:
 309              	.LBB4:
 127:main.c        ****     int j =0;
 128:main.c        ****     
 129:main.c        ****     // Loop generating jumping sound for 0.5s 
 130:main.c        ****      for(int i=0;i<500000;i++){ 
 310              		.loc 1 130 0
 311 0028 0024     		movs	r4, #0
 312              	.LBE4:
 127:main.c        ****     int j =0;
 313              		.loc 1 127 0
 314 002a 2546     		mov	r5, r4
 315              	.LBB5:
 316              		.loc 1 130 0
 317 002c 13E0     		b	.L23
 318              	.LVL32:
 319              	.L26:
 131:main.c        ****         if(0x80 & Timer_audio_ReadStatusRegister()){
ARM GAS  C:\Users\sucra\AppData\Local\Temp\cctzm17f.s 			page 9


 320              		.loc 1 131 0
 321 002e FFF7FEFF 		bl	Timer_audio_ReadStatusRegister
 322              	.LVL33:
 323 0032 10F0800F 		tst	r0, #128
 324 0036 0DD0     		beq	.L24
 132:main.c        ****             VDAC_SetValue(wave[j]);
 325              		.loc 1 132 0
 326 0038 1A4B     		ldr	r3, .L30+4
 327 003a 03EBC503 		add	r3, r3, r5, lsl #3
 328 003e D3E90001 		ldrd	r0, [r3]
 329 0042 FFF7FEFF 		bl	__aeabi_d2uiz
 330              	.LVL34:
 331 0046 C0B2     		uxtb	r0, r0
 332 0048 FFF7FEFF 		bl	VDAC_SetValue
 333              	.LVL35:
 133:main.c        ****             if (j>99) j=0;
 334              		.loc 1 133 0
 335 004c 632D     		cmp	r5, #99
 336 004e 00DD     		ble	.L25
 337 0050 0025     		movs	r5, #0
 338              	.LVL36:
 339              	.L25:
 134:main.c        ****             // increment twice to get a higher pitch
 135:main.c        ****             j++;
 136:main.c        ****             j++;
 340              		.loc 1 136 0
 341 0052 0235     		adds	r5, r5, #2
 342              	.LVL37:
 343              	.L24:
 130:main.c        ****         if(0x80 & Timer_audio_ReadStatusRegister()){
 344              		.loc 1 130 0 discriminator 2
 345 0054 0134     		adds	r4, r4, #1
 346              	.LVL38:
 347              	.L23:
 130:main.c        ****         if(0x80 & Timer_audio_ReadStatusRegister()){
 348              		.loc 1 130 0 is_stmt 0 discriminator 1
 349 0056 144B     		ldr	r3, .L30+8
 350 0058 9C42     		cmp	r4, r3
 351 005a E8DD     		ble	.L26
 352              	.LBE5:
 137:main.c        ****         }
 138:main.c        ****     }
 139:main.c        ****     // Updates servo motor to "up" position 
 140:main.c        ****     JUMP_WriteCompare(2600);
 353              		.loc 1 140 0 is_stmt 1
 354 005c 40F62820 		movw	r0, #2600
 355 0060 FFF7FEFF 		bl	JUMP_WriteCompare
 356              	.LVL39:
 141:main.c        ****     LED1_Write(0); // turn off the LEDs
 357              		.loc 1 141 0
 358 0064 0020     		movs	r0, #0
 359 0066 FFF7FEFF 		bl	LED1_Write
 360              	.LVL40:
 142:main.c        ****     LED2_Write(0);
 361              		.loc 1 142 0
 362 006a 0020     		movs	r0, #0
 363 006c FFF7FEFF 		bl	LED2_Write
ARM GAS  C:\Users\sucra\AppData\Local\Temp\cctzm17f.s 			page 10


 364              	.LVL41:
 143:main.c        ****     char string[1024];
 144:main.c        ****     //Writes "JUMP" in the UART 
 145:main.c        ****     sprintf(string,"JUMP \n");
 365              		.loc 1 145 0
 366 0070 0E4A     		ldr	r2, .L30+12
 367 0072 92E80300 		ldmia	r2, {r0, r1}
 368 0076 0090     		str	r0, [sp]
 369 0078 ADF80410 		strh	r1, [sp, #4]	@ movhi
 370 007c 090C     		lsrs	r1, r1, #16
 371 007e 8DF80610 		strb	r1, [sp, #6]
 146:main.c        ****     UART_PutString(string); //print in the UART JUMP
 372              		.loc 1 146 0
 373 0082 6846     		mov	r0, sp
 374 0084 FFF7FEFF 		bl	UART_PutString
 375              	.LVL42:
 147:main.c        ****     //if the game didn't start , start the score  
 148:main.c        ****     if ( score == 0 ){
 376              		.loc 1 148 0
 377 0088 094B     		ldr	r3, .L30+16
 378 008a 1B68     		ldr	r3, [r3]
 379 008c 23B9     		cbnz	r3, .L22
 149:main.c        ****         Timer_Start(); // Configure and enable timer
 380              		.loc 1 149 0
 381 008e FFF7FEFF 		bl	Timer_Start
 382              	.LVL43:
 150:main.c        ****         isr_1_StartEx(MY_ISR);
 383              		.loc 1 150 0
 384 0092 0848     		ldr	r0, .L30+20
 385 0094 FFF7FEFF 		bl	isr_1_StartEx
 386              	.LVL44:
 387              	.L22:
 151:main.c        ****     }
 152:main.c        **** }
 388              		.loc 1 152 0
 389 0098 0DF2044D 		addw	sp, sp, #1028
 390              		.cfi_def_cfa_offset 12
 391              		@ sp needed
 392 009c 30BD     		pop	{r4, r5, pc}
 393              	.LVL45:
 394              	.L31:
 395 009e 00BF     		.align	2
 396              	.L30:
 397 00a0 18000000 		.word	.LC3
 398 00a4 00000000 		.word	wave
 399 00a8 1FA10700 		.word	499999
 400 00ac 20000000 		.word	.LC4
 401 00b0 00000000 		.word	.LANCHOR0
 402 00b4 00000000 		.word	MY_ISR
 403              		.cfi_endproc
 404              	.LFE70:
 405              		.size	jump, .-jump
 406              		.section	.text.sw1,"ax",%progbits
 407              		.align	2
 408              		.global	sw1
 409              		.thumb
 410              		.thumb_func
ARM GAS  C:\Users\sucra\AppData\Local\Temp\cctzm17f.s 			page 11


 411              		.type	sw1, %function
 412              	sw1:
 413              	.LFB64:
  30:main.c        ****     jump();}
 414              		.loc 1 30 0
 415              		.cfi_startproc
 416              		@ args = 0, pretend = 0, frame = 0
 417              		@ frame_needed = 0, uses_anonymous_args = 0
 418 0000 08B5     		push	{r3, lr}
 419              		.cfi_def_cfa_offset 8
 420              		.cfi_offset 3, -8
 421              		.cfi_offset 14, -4
  31:main.c        ****     
 422              		.loc 1 31 0
 423 0002 FFF7FEFF 		bl	jump
 424              	.LVL46:
 425 0006 08BD     		pop	{r3, pc}
 426              		.cfi_endproc
 427              	.LFE64:
 428              		.size	sw1, .-sw1
 429              		.section	.text.InterruptionRX,"ax",%progbits
 430              		.align	2
 431              		.global	InterruptionRX
 432              		.thumb
 433              		.thumb_func
 434              		.type	InterruptionRX, %function
 435              	InterruptionRX:
 436              	.LFB66:
  36:main.c        ****     
 437              		.loc 1 36 0
 438              		.cfi_startproc
 439              		@ args = 0, pretend = 0, frame = 0
 440              		@ frame_needed = 0, uses_anonymous_args = 0
 441 0000 10B5     		push	{r4, lr}
 442              		.cfi_def_cfa_offset 8
 443              		.cfi_offset 4, -8
 444              		.cfi_offset 14, -4
 445              	.L39:
  41:main.c        ****         if (( status & UART_RX_STS_PAR_ERROR ) |
 446              		.loc 1 41 0
 447 0002 FFF7FEFF 		bl	UART_ReadRxStatus
 448              	.LVL47:
 449 0006 00F02000 		and	r0, r0, #32
 450              	.LVL48:
  52:main.c        ****             uint8 Receiver = UART_ReadRxData () ;
 451              		.loc 1 52 0
 452 000a 00F0FF04 		and	r4, r0, #255
 453 000e 70B1     		cbz	r0, .L35
 454              	.LBB6:
  53:main.c        ****         
 455              		.loc 1 53 0
 456 0010 FFF7FEFF 		bl	UART_ReadRxData
 457              	.LVL49:
  55:main.c        ****             // if we receive a j then jump
 458              		.loc 1 55 0
 459 0014 4A28     		cmp	r0, #74
 460 0016 01D0     		beq	.L36
ARM GAS  C:\Users\sucra\AppData\Local\Temp\cctzm17f.s 			page 12


  55:main.c        ****             // if we receive a j then jump
 461              		.loc 1 55 0 is_stmt 0 discriminator 1
 462 0018 6A28     		cmp	r0, #106
 463 001a 02D1     		bne	.L37
 464              	.L36:
  57:main.c        ****             }
 465              		.loc 1 57 0 is_stmt 1
 466 001c FFF7FEFF 		bl	jump
 467              	.LVL50:
 468 0020 05E0     		b	.L35
 469              	.LVL51:
 470              	.L37:
  59:main.c        ****             //if we receive a d then duck 
 471              		.loc 1 59 0
 472 0022 4428     		cmp	r0, #68
 473 0024 01D0     		beq	.L38
  59:main.c        ****             //if we receive a d then duck 
 474              		.loc 1 59 0 is_stmt 0 discriminator 1
 475 0026 6428     		cmp	r0, #100
 476 0028 01D1     		bne	.L35
 477              	.L38:
  61:main.c        ****             }
 478              		.loc 1 61 0 is_stmt 1
 479 002a FFF7FEFF 		bl	duck
 480              	.LVL52:
 481              	.L35:
 482              	.LBE6:
  64:main.c        **** }
 483              		.loc 1 64 0
 484 002e 002C     		cmp	r4, #0
 485 0030 E7D1     		bne	.L39
  65:main.c        **** 
 486              		.loc 1 65 0
 487 0032 10BD     		pop	{r4, pc}
 488              		.cfi_endproc
 489              	.LFE66:
 490              		.size	InterruptionRX, .-InterruptionRX
 491              		.global	__aeabi_i2d
 492              		.global	__aeabi_dmul
 493              		.global	__aeabi_dadd
 494              		.section	.text.main,"ax",%progbits
 495              		.align	2
 496              		.global	main
 497              		.thumb
 498              		.thumb_func
 499              		.type	main, %function
 500              	main:
 501              	.LFB71:
 153:main.c        **** 
 154:main.c        **** 
 155:main.c        **** 
 156:main.c        **** int main(void)
 157:main.c        **** {
 502              		.loc 1 157 0
 503              		.cfi_startproc
 504              		@ args = 0, pretend = 0, frame = 0
 505              		@ frame_needed = 0, uses_anonymous_args = 0
ARM GAS  C:\Users\sucra\AppData\Local\Temp\cctzm17f.s 			page 13


 506 0000 38B5     		push	{r3, r4, r5, lr}
 507              		.cfi_def_cfa_offset 16
 508              		.cfi_offset 3, -16
 509              		.cfi_offset 4, -12
 510              		.cfi_offset 5, -8
 511              		.cfi_offset 14, -4
 158:main.c        ****     /* Enable global interrupts. */
 159:main.c        ****     CyGlobalIntEnable;
 512              		.loc 1 159 0
 513              		.syntax unified
 514              	@ 159 "main.c" 1
 515 0002 62B6     		CPSIE   i
 516              	@ 0 "" 2
 160:main.c        ****     
 161:main.c        ****     //start the interruption for the 3 buttons 
 162:main.c        ****     isr_sw3_StartEx(sw3);
 517              		.loc 1 162 0
 518              		.thumb
 519              		.syntax unified
 520 0004 3C48     		ldr	r0, .L50+8
 521 0006 FFF7FEFF 		bl	isr_sw3_StartEx
 522              	.LVL53:
 163:main.c        ****     isr_sw2_StartEx(sw2);
 523              		.loc 1 163 0
 524 000a 3C48     		ldr	r0, .L50+12
 525 000c FFF7FEFF 		bl	isr_sw2_StartEx
 526              	.LVL54:
 164:main.c        ****     isr_sw1_StartEx(sw1);
 527              		.loc 1 164 0
 528 0010 3B48     		ldr	r0, .L50+16
 529 0012 FFF7FEFF 		bl	isr_sw1_StartEx
 530              	.LVL55:
 165:main.c        ****     
 166:main.c        ****     //start the interruption to read UART 
 167:main.c        ****     isr_RX_StartEx(InterruptionRX);
 531              		.loc 1 167 0
 532 0016 3B48     		ldr	r0, .L50+20
 533 0018 FFF7FEFF 		bl	isr_RX_StartEx
 534              	.LVL56:
 168:main.c        ****     ADC_Start(); 
 535              		.loc 1 168 0
 536 001c FFF7FEFF 		bl	ADC_Start
 537              	.LVL57:
 169:main.c        ****     AMUX_Start();// switch between the photoresistors
 538              		.loc 1 169 0
 539 0020 FFF7FEFF 		bl	AMUX_Start
 540              	.LVL58:
 170:main.c        ****     LCD_Char_Start();
 541              		.loc 1 170 0
 542 0024 FFF7FEFF 		bl	LCD_Char_Start
 543              	.LVL59:
 171:main.c        ****     LCD_Char_ClearDisplay();
 544              		.loc 1 171 0
 545 0028 0120     		movs	r0, #1
 546 002a FFF7FEFF 		bl	LCD_Char_WriteControl
 547              	.LVL60:
 172:main.c        ****     Timer_audio_Start();
ARM GAS  C:\Users\sucra\AppData\Local\Temp\cctzm17f.s 			page 14


 548              		.loc 1 172 0
 549 002e FFF7FEFF 		bl	Timer_audio_Start
 550              	.LVL61:
 173:main.c        ****     VDAC_Start();
 551              		.loc 1 173 0
 552 0032 FFF7FEFF 		bl	VDAC_Start
 553              	.LVL62:
 174:main.c        ****     UART_Start();
 554              		.loc 1 174 0
 555 0036 FFF7FEFF 		bl	UART_Start
 556              	.LVL63:
 175:main.c        ****     JUMP_Start();
 557              		.loc 1 175 0
 558 003a FFF7FEFF 		bl	JUMP_Start
 559              	.LVL64:
 176:main.c        ****     DUCK_Start();
 560              		.loc 1 176 0
 561 003e FFF7FEFF 		bl	DUCK_Start
 562              	.LVL65:
 177:main.c        ****     LCD_Char_Init();
 563              		.loc 1 177 0
 564 0042 FFF7FEFF 		bl	LCD_Char_Init
 565              	.LVL66:
 178:main.c        ****     LCD_Char_Start();
 566              		.loc 1 178 0
 567 0046 FFF7FEFF 		bl	LCD_Char_Start
 568              	.LVL67:
 179:main.c        ****     LCD_Char_PrintString("READY");
 569              		.loc 1 179 0
 570 004a 2F48     		ldr	r0, .L50+24
 571 004c FFF7FEFF 		bl	LCD_Char_PrintString
 572              	.LVL68:
 180:main.c        ****     keypadInit();
 573              		.loc 1 180 0
 574 0050 FFF7FEFF 		bl	keypadInit
 575              	.LVL69:
 181:main.c        ****     ADC_StartConvert();
 576              		.loc 1 181 0
 577 0054 FFF7FEFF 		bl	ADC_StartConvert
 578              	.LVL70:
 579              	.LBB7:
 182:main.c        ****     
 183:main.c        ****     char key;
 184:main.c        **** 
 185:main.c        ****     //initialising the sin wave for the sound 
 186:main.c        ****     for (int i =0 ;i<100;i++){ 
 580              		.loc 1 186 0
 581 0058 0024     		movs	r4, #0
 582 005a 1DE0     		b	.L42
 583              	.LVL71:
 584              	.L43:
 187:main.c        ****         wave[i]= 128*sin( (i/25)* 2 * M_PI)+80;
 585              		.loc 1 187 0 discriminator 3
 586 005c 2B48     		ldr	r0, .L50+28
 587 005e 80FB0430 		smull	r3, r0, r0, r4
 588 0062 E317     		asrs	r3, r4, #31
 589 0064 C3EBE000 		rsb	r0, r3, r0, asr #3
ARM GAS  C:\Users\sucra\AppData\Local\Temp\cctzm17f.s 			page 15


 590 0068 4000     		lsls	r0, r0, #1
 591 006a FFF7FEFF 		bl	__aeabi_i2d
 592              	.LVL72:
 593 006e 20A3     		adr	r3, .L50
 594 0070 D3E90023 		ldrd	r2, [r3]
 595 0074 FFF7FEFF 		bl	__aeabi_dmul
 596              	.LVL73:
 597 0078 FFF7FEFF 		bl	sin
 598              	.LVL74:
 599 007c 0022     		movs	r2, #0
 600 007e 244B     		ldr	r3, .L50+32
 601 0080 FFF7FEFF 		bl	__aeabi_dmul
 602              	.LVL75:
 603 0084 0022     		movs	r2, #0
 604 0086 234B     		ldr	r3, .L50+36
 605 0088 FFF7FEFF 		bl	__aeabi_dadd
 606              	.LVL76:
 607 008c 224B     		ldr	r3, .L50+40
 608 008e 03EBC403 		add	r3, r3, r4, lsl #3
 609 0092 C3E90001 		strd	r0, [r3]
 186:main.c        ****         wave[i]= 128*sin( (i/25)* 2 * M_PI)+80;
 610              		.loc 1 186 0 discriminator 3
 611 0096 0134     		adds	r4, r4, #1
 612              	.LVL77:
 613              	.L42:
 186:main.c        ****         wave[i]= 128*sin( (i/25)* 2 * M_PI)+80;
 614              		.loc 1 186 0 is_stmt 0 discriminator 1
 615 0098 632C     		cmp	r4, #99
 616 009a DFDD     		ble	.L43
 617              	.LVL78:
 618              	.L44:
 619              	.LBE7:
 620              	.LBB8:
 188:main.c        ****     }
 189:main.c        ****     for(;;){
 190:main.c        ****         key=keypadScan();
 621              		.loc 1 190 0 is_stmt 1
 622 009c FFF7FEFF 		bl	keypadScan
 623              	.LVL79:
 624 00a0 0446     		mov	r4, r0
 625              	.LVL80:
 191:main.c        ****         ADC_IsEndConversion(ADC_WAIT_FOR_RESULT); //to read the value of the resistors
 626              		.loc 1 191 0
 627 00a2 0020     		movs	r0, #0
 628 00a4 FFF7FEFF 		bl	ADC_IsEndConversion
 629              	.LVL81:
 192:main.c        ****         
 193:main.c        ****         AMUX_Select(0); //switch to the jump resistor 
 630              		.loc 1 193 0
 631 00a8 0020     		movs	r0, #0
 632 00aa FFF7FEFF 		bl	AMUX_Select
 633              	.LVL82:
 194:main.c        ****         int32 tmp_pot1=ADC_GetResult32(); 
 634              		.loc 1 194 0
 635 00ae FFF7FEFF 		bl	ADC_GetResult32
 636              	.LVL83:
 195:main.c        ****         int16 potjump=ADC_CountsTo_mVolts(tmp_pot1);
ARM GAS  C:\Users\sucra\AppData\Local\Temp\cctzm17f.s 			page 16


 637              		.loc 1 195 0
 638 00b2 FFF7FEFF 		bl	ADC_CountsTo_mVolts
 639              	.LVL84:
 640 00b6 0546     		mov	r5, r0
 641              	.LVL85:
 196:main.c        ****         
 197:main.c        ****         CyDelay(10); // Delay needed for the AMUX
 642              		.loc 1 197 0
 643 00b8 0A20     		movs	r0, #10
 644 00ba FFF7FEFF 		bl	CyDelay
 645              	.LVL86:
 198:main.c        ****         
 199:main.c        ****         AMUX_Select(1); //switch to the duck resistor
 646              		.loc 1 199 0
 647 00be 0120     		movs	r0, #1
 648 00c0 FFF7FEFF 		bl	AMUX_Select
 649              	.LVL87:
 200:main.c        ****         int32 tmp_pot2=ADC_GetResult32();
 650              		.loc 1 200 0
 651 00c4 FFF7FEFF 		bl	ADC_GetResult32
 652              	.LVL88:
 201:main.c        ****         int16 potduck=ADC_CountsTo_mVolts(tmp_pot2);
 653              		.loc 1 201 0
 654 00c8 FFF7FEFF 		bl	ADC_CountsTo_mVolts
 655              	.LVL89:
 202:main.c        **** 
 203:main.c        ****          if ( (potjump> 3200) || key=='2' ){ // if object detected or key pressed
 656              		.loc 1 203 0
 657 00cc B5F5486F 		cmp	r5, #3200
 658 00d0 01DC     		bgt	.L45
 659              		.loc 1 203 0 is_stmt 0 discriminator 1
 660 00d2 322C     		cmp	r4, #50
 661 00d4 02D1     		bne	.L46
 662              	.L45:
 204:main.c        ****             jump();
 663              		.loc 1 204 0 is_stmt 1
 664 00d6 FFF7FEFF 		bl	jump
 665              	.LVL90:
 666 00da DFE7     		b	.L44
 667              	.LVL91:
 668              	.L46:
 205:main.c        ****         }
 206:main.c        ****         else if ( (potduck>3550 ) || key=='5'  ) {// if object detected or key pressed
 669              		.loc 1 206 0
 670 00dc 40F6DE53 		movw	r3, #3550
 671 00e0 9842     		cmp	r0, r3
 672 00e2 01DC     		bgt	.L48
 673              		.loc 1 206 0 is_stmt 0 discriminator 1
 674 00e4 352C     		cmp	r4, #53
 675 00e6 D9D1     		bne	.L44
 676              	.L48:
 207:main.c        ****                 duck();
 677              		.loc 1 207 0 is_stmt 1
 678 00e8 FFF7FEFF 		bl	duck
 679              	.LVL92:
 680 00ec D6E7     		b	.L44
 681              	.L51:
ARM GAS  C:\Users\sucra\AppData\Local\Temp\cctzm17f.s 			page 17


 682 00ee 00BF     		.align	3
 683              	.L50:
 684 00f0 182D4454 		.word	1413754136
 685 00f4 FB210940 		.word	1074340347
 686 00f8 00000000 		.word	sw3
 687 00fc 00000000 		.word	sw2
 688 0100 00000000 		.word	sw1
 689 0104 00000000 		.word	InterruptionRX
 690 0108 00000000 		.word	.LC0
 691 010c 1F85EB51 		.word	1374389535
 692 0110 00006040 		.word	1080033280
 693 0114 00005440 		.word	1079246848
 694 0118 00000000 		.word	wave
 695              	.LBE8:
 696              		.cfi_endproc
 697              	.LFE71:
 698              		.size	main, .-main
 699              		.comm	wave,800,8
 700              		.global	score
 701              		.comm	ms_count,2,2
 702              		.comm	value,1,1
 703              		.global	i
 704              		.comm	jmp,4,4
 705              		.section	.rodata.str1.4,"aMS",%progbits,1
 706              		.align	2
 707              	.LC0:
 708 0000 52454144 		.ascii	"READY\000"
 708      5900
 709 0006 0000     		.space	2
 710              	.LC1:
 711 0008 4475636B 		.ascii	"Duck \000"
 711      2000
 712 000e 0000     		.space	2
 713              	.LC2:
 714 0010 4455434B 		.ascii	"DUCK \012\000"
 714      200A00
 715 0017 00       		.space	1
 716              	.LC3:
 717 0018 4A756D70 		.ascii	"Jump \000"
 717      2000
 718 001e 0000     		.space	2
 719              	.LC4:
 720 0020 4A554D50 		.ascii	"JUMP \012\000"
 720      200A00
 721              		.bss
 722              		.align	2
 723              		.set	.LANCHOR0,. + 0
 724              		.type	score, %object
 725              		.size	score, 4
 726              	score:
 727 0000 00000000 		.space	4
 728              		.type	i, %object
 729              		.size	i, 2
 730              	i:
 731 0004 0000     		.space	2
 732              		.text
 733              	.Letext0:
ARM GAS  C:\Users\sucra\AppData\Local\Temp\cctzm17f.s 			page 18


 734              		.file 2 "c:\\program files (x86)\\cypress\\psoc creator\\4.4\\psoc creator\\import\\gnu\\arm\\5.4.
 735              		.file 3 "c:\\program files (x86)\\cypress\\psoc creator\\4.4\\psoc creator\\import\\gnu\\arm\\5.4.
 736              		.file 4 "Generated_Source\\PSoC5/cytypes.h"
 737              		.file 5 "Generated_Source\\PSoC5/core_cm3.h"
 738              		.file 6 "Generated_Source\\PSoC5/SW3.h"
 739              		.file 7 "Generated_Source\\PSoC5/Timer.h"
 740              		.file 8 "Generated_Source\\PSoC5/LCD_Char.h"
 741              		.file 9 "Generated_Source\\PSoC5/Timer_audio.h"
 742              		.file 10 "Generated_Source\\PSoC5/VDAC.h"
 743              		.file 11 "Generated_Source\\PSoC5/LED3.h"
 744              		.file 12 "Generated_Source\\PSoC5/LED4.h"
 745              		.file 13 "Generated_Source\\PSoC5/DUCK.h"
 746              		.file 14 "Generated_Source\\PSoC5/UART.h"
 747              		.file 15 "Generated_Source\\PSoC5/isr_1.h"
 748              		.file 16 "Generated_Source\\PSoC5/LED1.h"
 749              		.file 17 "Generated_Source\\PSoC5/LED2.h"
 750              		.file 18 "Generated_Source\\PSoC5/JUMP.h"
 751              		.file 19 "keypad.h"
 752              		.file 20 "Generated_Source\\PSoC5/ADC.h"
 753              		.file 21 "Generated_Source\\PSoC5/AMUX.h"
 754              		.file 22 "Generated_Source\\PSoC5/CyLib.h"
 755              		.file 23 "Generated_Source\\PSoC5/isr_sw3.h"
 756              		.file 24 "Generated_Source\\PSoC5/isr_sw2.h"
 757              		.file 25 "Generated_Source\\PSoC5/isr_sw1.h"
 758              		.file 26 "Generated_Source\\PSoC5/isr_RX.h"
 759              		.file 27 "c:\\program files (x86)\\cypress\\psoc creator\\4.4\\psoc creator\\import\\gnu\\arm\\5.4